target datalayout = "e-m:e-p270:32:32-p271:32:32-p272:64:64-i64:64-i128:128-f80:128-n8:16:32:64-S128"
target triple = "x86_64-pc-linux-gnu"

%struct.lua_State = type { %struct.GCRef, i8, i8, i8, i8, %struct.MRef, %struct.GCRef, ptr, ptr, %struct.MRef, %struct.MRef, %struct.GCRef, %struct.GCRef, ptr, i32 }
%struct.MRef = type { i64 }
%struct.GCRef = type { i64 }
%union.TValue = type { i64 }
%struct.global_State = type { ptr, ptr, %struct.GCState, %struct.GCstr, i8, i8, i8, i8, %struct.StrInternState, i32, %struct.GCRef, %struct.SBuf, %union.TValue, %union.TValue, %struct.Node, %union.TValue, %struct.GCupval, i32, i32, ptr, ptr, ptr, i32, i32, %struct.GCRef, %struct.MRef, %struct.MRef, %struct.PRNGState, [39 x %struct.GCRef] }
%struct.GCState = type { i64, i64, i8, i8, i8, i8, i32, %struct.GCRef, %struct.MRef, %struct.GCRef, %struct.GCRef, %struct.GCRef, %struct.GCRef, i64, i64, i32, i32, %struct.MRef }
%struct.GCstr = type { %struct.GCRef, i8, i8, i8, i8, i32, i32, i32 }
%struct.StrInternState = type { ptr, i32, i32, i32, i8, i8, i8, i8, i64 }
%struct.SBuf = type { ptr, ptr, ptr, %struct.MRef }
%struct.Node = type { %union.TValue, %union.TValue, %struct.MRef }
%struct.GCupval = type { %struct.GCRef, i8, i8, i8, i8, %union.anon, %struct.MRef, i32 }
%union.anon = type { %struct.anon.1 }
%struct.anon.1 = type { %struct.GCRef, %struct.GCRef }
%struct.PRNGState = type { [4 x i64] }
%struct.GCfuncC = type { %struct.GCRef, i8, i8, i8, i8, %struct.GCRef, %struct.GCRef, %struct.MRef, ptr, [1 x %union.TValue] }

@.str = private unnamed_addr constant [23 x i8] c"copy of dead GC object\00", align 1
@.str.1 = private unnamed_addr constant [24 x i8] c"store to dead GC object\00", align 1

; Function Attrs: alwaysinline nounwind uwtable
define internal void @setgcVraw(ptr noundef %0, ptr noundef %1, i32 noundef %2) #4 {
  %4 = alloca ptr, align 8
  %5 = alloca ptr, align 8
  %6 = alloca i32, align 4
  store ptr %0, ptr %4, align 8, !tbaa !22
  store ptr %1, ptr %5, align 8, !tbaa !67
  store i32 %2, ptr %6, align 4, !tbaa !16
  %7 = load ptr, ptr %5, align 8, !tbaa !67
  %8 = ptrtoint ptr %7 to i64
  %9 = load i32, ptr %6, align 4, !tbaa !16
  %10 = zext i32 %9 to i64
  %11 = shl i64 %10, 47
  %12 = or i64 %8, %11
  %13 = load ptr, ptr %4, align 8, !tbaa !22
  %14 = getelementptr inbounds nuw %struct.GCRef, ptr %13, i32 0, i32 0
  store i64 %12, ptr %14, align 8, !tbaa !26
  ret void
}

; Function Attrs: alwaysinline nounwind uwtable
define internal void @setgcV(ptr noundef %0, ptr noundef %1, ptr noundef %2, i32 noundef %3) #4 {
  %5 = alloca ptr, align 8
  %6 = alloca ptr, align 8
  %7 = alloca ptr, align 8
  %8 = alloca i32, align 4
  store ptr %0, ptr %5, align 8, !tbaa !4
  store ptr %1, ptr %6, align 8, !tbaa !22
  store ptr %2, ptr %7, align 8, !tbaa !67
  store i32 %3, ptr %8, align 4, !tbaa !16
  %9 = load ptr, ptr %6, align 8, !tbaa !22
  %10 = load ptr, ptr %7, align 8, !tbaa !67
  %11 = load i32, ptr %8, align 4, !tbaa !16
  call void @setgcVraw(ptr noundef %9, ptr noundef %10, i32 noundef %11)
  %12 = load ptr, ptr %5, align 8, !tbaa !4
  %13 = load ptr, ptr %6, align 8, !tbaa !22
  call void @checklivetv(ptr noundef %12, ptr noundef %13, ptr noundef @.str.1)
  ret void
}

; Function Attrs: alwaysinline nounwind uwtable
define internal void @checklivetv(ptr noundef %0, ptr noundef %1, ptr noundef %2) #4 {
  %4 = alloca ptr, align 8
  %5 = alloca ptr, align 8
  %6 = alloca ptr, align 8
  store ptr %0, ptr %4, align 8, !tbaa !4
  store ptr %1, ptr %5, align 8, !tbaa !22
  store ptr %2, ptr %6, align 8, !tbaa !20
  ret void
}

; Function Attrs: alwaysinline nounwind uwtable
define internal void @setfuncV(ptr noundef %0, ptr noundef %1, ptr noundef %2) #4 {
  %4 = alloca ptr, align 8
  %5 = alloca ptr, align 8
  %6 = alloca ptr, align 8
  store ptr %0, ptr %4, align 8, !tbaa !4
  store ptr %1, ptr %5, align 8, !tbaa !22
  store ptr %2, ptr %6, align 8, !tbaa !32
  %7 = load ptr, ptr %4, align 8, !tbaa !4
  %8 = load ptr, ptr %5, align 8, !tbaa !22
  %9 = load ptr, ptr %6, align 8, !tbaa !32
  call void @setgcV(ptr noundef %7, ptr noundef %8, ptr noundef %9, i32 noundef -9)
  ret void
}

; Function Attrs: alwaysinline nounwind uwtable
define internal void @copyTV(ptr noundef %0, ptr noundef %1, ptr noundef %2) #4 {
  %4 = alloca ptr, align 8
  %5 = alloca ptr, align 8
  %6 = alloca ptr, align 8
  store ptr %0, ptr %4, align 8, !tbaa !4
  store ptr %1, ptr %5, align 8, !tbaa !22
  store ptr %2, ptr %6, align 8, !tbaa !22
  %7 = load ptr, ptr %5, align 8, !tbaa !22
  %8 = load ptr, ptr %6, align 8, !tbaa !22
  call void @llvm.memcpy.p0.p0.i64(ptr align 8 %7, ptr align 8 %8, i64 8, i1 false), !tbaa.struct !25
  %9 = load ptr, ptr %4, align 8, !tbaa !4
  %10 = load ptr, ptr %5, align 8, !tbaa !22
  call void @checklivetv(ptr noundef %9, ptr noundef %10, ptr noundef @.str)
  ret void
}

; Function Attrs: nounwind uwtable
define internal ptr @getcurrenv(ptr noundef %0) #0 {
  %2 = alloca ptr, align 8
  %3 = alloca ptr, align 8
  store ptr %0, ptr %2, align 8, !tbaa !4
  call void @llvm.lifetime.start.p0(i64 8, ptr %3) #9
  %4 = load ptr, ptr %2, align 8, !tbaa !4
  %5 = getelementptr inbounds nuw %struct.lua_State, ptr %4, i32 0, i32 7
  %6 = load ptr, ptr %5, align 8, !tbaa !18
  %7 = getelementptr inbounds %union.TValue, ptr %6, i64 -2
  %8 = getelementptr inbounds nuw %struct.GCRef, ptr %7, i32 0, i32 0
  %9 = load i64, ptr %8, align 8, !tbaa !26
  %10 = and i64 %9, 140737488355327
  %11 = inttoptr i64 %10 to ptr
  store ptr %11, ptr %3, align 8, !tbaa !32
  %12 = load ptr, ptr %3, align 8, !tbaa !32
  %13 = getelementptr inbounds nuw %struct.GCfuncC, ptr %12, i32 0, i32 2
  %14 = load i8, ptr %13, align 1, !tbaa !26
  %15 = zext i8 %14 to i32
  %16 = icmp eq i32 %15, 8
  br i1 %16, label %17, label %23

17:                                               ; preds = %1
  %18 = load ptr, ptr %3, align 8, !tbaa !32
  %19 = getelementptr inbounds nuw %struct.GCfuncC, ptr %18, i32 0, i32 5
  %20 = getelementptr inbounds nuw %struct.GCRef, ptr %19, i32 0, i32 0
  %21 = load i64, ptr %20, align 8, !tbaa !26
  %22 = inttoptr i64 %21 to ptr
  br label %29

23:                                               ; preds = %1
  %24 = load ptr, ptr %2, align 8, !tbaa !4
  %25 = getelementptr inbounds nuw %struct.lua_State, ptr %24, i32 0, i32 12
  %26 = getelementptr inbounds nuw %struct.GCRef, ptr %25, i32 0, i32 0
  %27 = load i64, ptr %26, align 8, !tbaa !31
  %28 = inttoptr i64 %27 to ptr
  br label %29

29:                                               ; preds = %23, %17
  %30 = phi ptr [ %22, %17 ], [ %28, %23 ]
  call void @llvm.lifetime.end.p0(i64 8, ptr %3) #9
  ret ptr %30
}

; Function Attrs: nounwind uwtable
define dso_local void @lua_pushcclosure(ptr noundef %0, ptr noundef %1, i32 noundef %2) #0 {
  %4 = alloca ptr, align 8
  %5 = alloca ptr, align 8
  %6 = alloca i32, align 4
  %7 = alloca ptr, align 8
  store ptr %0, ptr %4, align 8, !tbaa !4
  store ptr %1, ptr %5, align 8, !tbaa !63
  store i32 %2, ptr %6, align 4, !tbaa !16
  call void @llvm.lifetime.start.p0(i64 8, ptr %7) #9
  %8 = load ptr, ptr %4, align 8, !tbaa !4
  %9 = getelementptr inbounds nuw %struct.lua_State, ptr %8, i32 0, i32 5
  %10 = getelementptr inbounds nuw %struct.MRef, ptr %9, i32 0, i32 0
  %11 = load i64, ptr %10, align 8, !tbaa !29
  %12 = inttoptr i64 %11 to ptr
  %13 = getelementptr inbounds nuw %struct.global_State, ptr %12, i32 0, i32 2
  %14 = getelementptr inbounds nuw %struct.GCState, ptr %13, i32 0, i32 0
  %15 = load i64, ptr %14, align 8, !tbaa !43
  %16 = load ptr, ptr %4, align 8, !tbaa !4
  %17 = getelementptr inbounds nuw %struct.lua_State, ptr %16, i32 0, i32 5
  %18 = getelementptr inbounds nuw %struct.MRef, ptr %17, i32 0, i32 0
  %19 = load i64, ptr %18, align 8, !tbaa !29
  %20 = inttoptr i64 %19 to ptr
  %21 = getelementptr inbounds nuw %struct.global_State, ptr %20, i32 0, i32 2
  %22 = getelementptr inbounds nuw %struct.GCState, ptr %21, i32 0, i32 1
  %23 = load i64, ptr %22, align 8, !tbaa !53
  %24 = icmp uge i64 %15, %23
  %25 = xor i1 %24, true
  %26 = xor i1 %25, true
  %27 = zext i1 %26 to i32
  %28 = sext i32 %27 to i64
  %29 = call i64 @llvm.expect.i64(i64 %28, i64 0)
  %30 = icmp ne i64 %29, 0
  br i1 %30, label %31, label %34

31:                                               ; preds = %3
  %32 = load ptr, ptr %4, align 8, !tbaa !4
  %33 = call i32 @lj_gc_step(ptr noundef %32)
  br label %34

34:                                               ; preds = %31, %3
  %35 = load ptr, ptr %4, align 8, !tbaa !4
  %36 = load i32, ptr %6, align 4, !tbaa !16
  %37 = load ptr, ptr %4, align 8, !tbaa !4
  %38 = call ptr @getcurrenv(ptr noundef %37)
  %39 = call ptr @lj_func_newC(ptr noundef %35, i32 noundef %36, ptr noundef %38)
  store ptr %39, ptr %7, align 8, !tbaa !32
  %40 = load ptr, ptr %5, align 8, !tbaa !63
  %41 = load ptr, ptr %7, align 8, !tbaa !32
  %42 = getelementptr inbounds nuw %struct.GCfuncC, ptr %41, i32 0, i32 8
  store ptr %40, ptr %42, align 8, !tbaa !26
  %43 = load i32, ptr %6, align 4, !tbaa !16
  %44 = load ptr, ptr %4, align 8, !tbaa !4
  %45 = getelementptr inbounds nuw %struct.lua_State, ptr %44, i32 0, i32 8
  %46 = load ptr, ptr %45, align 8, !tbaa !17
  %47 = sext i32 %43 to i64
  %48 = sub i64 0, %47
  %49 = getelementptr inbounds %union.TValue, ptr %46, i64 %48
  store ptr %49, ptr %45, align 8, !tbaa !17
  br label %50

50:                                               ; preds = %54, %34
  %51 = load i32, ptr %6, align 4, !tbaa !16
  %52 = add nsw i32 %51, -1
  store i32 %52, ptr %6, align 4, !tbaa !16
  %53 = icmp ne i32 %51, 0
  br i1 %53, label %54, label %67

54:                                               ; preds = %50
  %55 = load ptr, ptr %4, align 8, !tbaa !4
  %56 = load ptr, ptr %7, align 8, !tbaa !32
  %57 = getelementptr inbounds nuw %struct.GCfuncC, ptr %56, i32 0, i32 9
  %58 = load i32, ptr %6, align 4, !tbaa !16
  %59 = sext i32 %58 to i64
  %60 = getelementptr inbounds [1 x %union.TValue], ptr %57, i64 0, i64 %59
  %61 = load ptr, ptr %4, align 8, !tbaa !4
  %62 = getelementptr inbounds nuw %struct.lua_State, ptr %61, i32 0, i32 8
  %63 = load ptr, ptr %62, align 8, !tbaa !17
  %64 = load i32, ptr %6, align 4, !tbaa !16
  %65 = sext i32 %64 to i64
  %66 = getelementptr inbounds %union.TValue, ptr %63, i64 %65
  call void @copyTV(ptr noundef %55, ptr noundef %60, ptr noundef %66)
  br label %50, !llvm.loop !64

67:                                               ; preds = %50
  %68 = load ptr, ptr %4, align 8, !tbaa !4
  %69 = load ptr, ptr %4, align 8, !tbaa !4
  %70 = getelementptr inbounds nuw %struct.lua_State, ptr %69, i32 0, i32 8
  %71 = load ptr, ptr %70, align 8, !tbaa !17
  %72 = load ptr, ptr %7, align 8, !tbaa !32
  call void @setfuncV(ptr noundef %68, ptr noundef %71, ptr noundef %72)
  %73 = load ptr, ptr %4, align 8, !tbaa !4
  %74 = getelementptr inbounds nuw %struct.lua_State, ptr %73, i32 0, i32 8
  %75 = load ptr, ptr %74, align 8, !tbaa !17
  %76 = getelementptr inbounds nuw %union.TValue, ptr %75, i32 1
  store ptr %76, ptr %74, align 8, !tbaa !17
  %77 = load ptr, ptr %4, align 8, !tbaa !4
  %78 = getelementptr inbounds nuw %struct.lua_State, ptr %77, i32 0, i32 9
  %79 = getelementptr inbounds nuw %struct.MRef, ptr %78, i32 0, i32 0
  %80 = load i64, ptr %79, align 8, !tbaa !19
  %81 = inttoptr i64 %80 to ptr
  %82 = icmp uge ptr %76, %81
  br i1 %82, label %83, label %85

83:                                               ; preds = %67
  %84 = load ptr, ptr %4, align 8, !tbaa !4
  call void @lj_state_growstack1(ptr noundef %84)
  br label %85

85:                                               ; preds = %83, %67
  call void @llvm.lifetime.end.p0(i64 8, ptr %7) #9
  ret void
}