; Function Attrs: nounwind uwtable
define dso_local void @lua_pushcclosure(ptr noundef %0, ptr noundef %1, i32 noundef %2) local_unnamed_addr #1 {
  %4 = getelementptr inbounds nuw i8, ptr %0, i64 16
  %5 = load i64, ptr %4, align 8, !tbaa !21
  %6 = inttoptr i64 %5 to ptr
  %7 = getelementptr inbounds nuw i8, ptr %6, i64 16
  %8 = load i64, ptr %7, align 8, !tbaa !29
  %9 = getelementptr inbounds nuw i8, ptr %6, i64 24
  %10 = load i64, ptr %9, align 8, !tbaa !39
  %.not = icmp ult i64 %8, %10
  br i1 %.not, label %13, label %11, !prof !27

11:                                               ; preds = %3
  %12 = tail call i32 @lj_gc_step(ptr noundef nonnull %0) #13
  br label %13

13:                                               ; preds = %11, %3
  %14 = getelementptr inbounds nuw i8, ptr %0, i64 32
  %15 = load ptr, ptr %14, align 8, !tbaa !15
  %16 = getelementptr inbounds i8, ptr %15, i64 -16
  %17 = load i64, ptr %16, align 8, !tbaa !17
  %18 = and i64 %17, 140737488355327
  %19 = inttoptr i64 %18 to ptr
  %20 = getelementptr inbounds nuw i8, ptr %19, i64 9
  %21 = load i8, ptr %20, align 1, !tbaa !17
  %22 = icmp eq i8 %21, 8
  %23 = getelementptr inbounds nuw i8, ptr %19, i64 16
  %24 = getelementptr inbounds nuw i8, ptr %0, i64 72
  %.in.in.i = select i1 %22, ptr %23, ptr %24
  %.in.i = load i64, ptr %.in.in.i, align 8, !tbaa !17
  %25 = inttoptr i64 %.in.i to ptr
  %26 = tail call ptr @lj_func_newC(ptr noundef nonnull %0, i32 noundef %2, ptr noundef %25) #13
  %27 = getelementptr inbounds nuw i8, ptr %26, i64 40
  store ptr %1, ptr %27, align 8, !tbaa !17
  %28 = getelementptr inbounds nuw i8, ptr %0, i64 40
  %29 = load ptr, ptr %28, align 8, !tbaa !14
  %30 = sext i32 %2 to i64
  %31 = sub nsw i64 0, %30
  %32 = getelementptr inbounds %union.TValue, ptr %29, i64 %31
  store ptr %32, ptr %28, align 8, !tbaa !14
  %.not2123 = icmp eq i32 %2, 0
  br i1 %.not2123, label %._crit_edge, label %.lr.ph

.lr.ph:                                           ; preds = %13
  %33 = getelementptr inbounds nuw i8, ptr %26, i64 48
  br label %34

34:                                               ; preds = %.lr.ph, %34
  %indvars.iv = phi i64 [ %30, %.lr.ph ], [ %indvars.iv.next, %34 ]
  %indvars.iv.next = add nsw i64 %indvars.iv, -1
  %35 = getelementptr inbounds [1 x %union.TValue], ptr %33, i64 0, i64 %indvars.iv.next
  %36 = load ptr, ptr %28, align 8, !tbaa !14
  %37 = getelementptr inbounds %union.TValue, ptr %36, i64 %indvars.iv.next
  %38 = load i64, ptr %37, align 8, !tbaa !17
  store i64 %38, ptr %35, align 8, !tbaa !17
  %.not21 = icmp eq i64 %indvars.iv.next, 0
  br i1 %.not21, label %._crit_edge.loopexit, label %34, !llvm.loop !45

._crit_edge.loopexit:                             ; preds = %34
  %.pre = load ptr, ptr %28, align 8, !tbaa !14
  br label %._crit_edge

._crit_edge:                                      ; preds = %._crit_edge.loopexit, %13
  %39 = phi ptr [ %.pre, %._crit_edge.loopexit ], [ %32, %13 ]
  %40 = ptrtoint ptr %26 to i64
  %41 = or i64 %40, -1266637395197952
  store i64 %41, ptr %39, align 8, !tbaa !17
  %42 = load ptr, ptr %28, align 8, !tbaa !14
  %43 = getelementptr inbounds nuw i8, ptr %42, i64 8
  store ptr %43, ptr %28, align 8, !tbaa !14
  %44 = getelementptr inbounds nuw i8, ptr %0, i64 48
  %45 = load i64, ptr %44, align 8, !tbaa !16
  %46 = inttoptr i64 %45 to ptr
  %.not22 = icmp ult ptr %43, %46
  br i1 %.not22, label %48, label %47

47:                                               ; preds = %._crit_edge
  tail call void @lj_state_growstack1(ptr noundef nonnull %0) #13
  br label %48

48:                                               ; preds = %47, %._crit_edge
  ret void
}